(ccollections
Counter
p0
((dp1
I0
I49831
sI1
I4451
sI2
I3696
sI3
I3507
sI4
I2929
sI5
I2882
sI6
I2796
sI7
I2390
sI8
I2153
sI9
I1809
sI10
I1430
sI11
I1253
sI12
I1090
sI13
I870
sI14
I751
sI15
I638
sI16
I542
sI17
I387
sI18
I302
sI19
I259
sI20
I202
sI21
I169
sI22
I105
sI23
I92
sI24
I81
sI25
I56
sI26
I40
sI27
I40
sI28
I32
sI29
I23
sI30
I17
sI31
I8
sI32
I8
sI33
I6
sI34
I8
sI35
I2
sI36
I3
sI37
I4
sI38
I4
sI39
I2
sI41
I1
sI47
I1
stp2
Rp3
(dp4
I0
g0
((dp5
I0
I49831
sI1
I1398
sI2
I981
sI3
I821
sI4
I614
sI5
I562
sI6
I571
sI7
I416
sI8
I364
sI9
I297
sI10
I225
sI11
I162
sI12
I156
sI13
I133
sI14
I109
sI15
I84
sI16
I72
sI17
I45
sI18
I57
sI19
I30
sI20
I31
sI21
I14
sI22
I23
sI23
I17
sI24
I14
sI25
I10
sI26
I3
sI27
I4
sI28
I3
sI29
I1
sI30
I4
sI31
I1
sI32
I1
sI34
I2
sI37
I2
sI38
I2
stp6
Rp7
sI1
g0
((dp8
I1
I1151
sI2
I1031
sI3
I996
sI4
I876
sI5
I860
sI6
I800
sI7
I681
sI8
I620
sI9
I508
sI10
I392
sI11
I368
sI12
I331
sI13
I243
sI14
I205
sI15
I175
sI16
I134
sI17
I95
sI18
I81
sI19
I78
sI20
I62
sI21
I52
sI22
I25
sI23
I21
sI24
I16
sI25
I13
sI26
I10
sI27
I12
sI28
I8
sI29
I4
sI30
I2
sI31
I2
sI32
I1
sI33
I1
sI34
I1
sI36
I1
sI41
I1
stp9
Rp10
sI-1
g0
((dp11
I1
I1902
sI2
I1684
sI3
I1690
sI4
I1439
sI5
I1460
sI6
I1425
sI7
I1293
sI8
I1169
sI9
I1004
sI10
I813
sI11
I723
sI12
I603
sI13
I494
sI14
I437
sI15
I379
sI16
I336
sI17
I247
sI18
I164
sI19
I151
sI20
I109
sI21
I103
sI22
I57
sI23
I54
sI24
I51
sI25
I33
sI26
I27
sI27
I24
sI28
I21
sI29
I18
sI30
I11
sI31
I5
sI32
I6
sI33
I5
sI34
I5
sI35
I2
sI36
I2
sI37
I2
sI38
I2
sI39
I2
sI47
I1
stp12
Rp13
stp14
.