ccollections
defaultdict
p0
(ccollections
Counter
p1
tp2
Rp3
Vuedin-unconstrained.3424
p4
g1
((dp5
I0
I5673
sI1
I371
sI2
I296
sI3
I331
sI4
I241
sI5
I257
sI6
I237
sI7
I208
sI8
I170
sI9
I148
sI10
I109
sI11
I89
sI12
I67
sI13
I71
sI14
I50
sI15
I52
sI16
I29
sI17
I22
sI18
I13
sI19
I10
sI20
I9
sI21
I5
sI22
I6
sI23
I4
sI24
I7
sI25
I2
sI26
I2
sI27
I1
sI28
I2
sI29
I1
sI30
I1
sI32
I2
sI33
I1
stp6
Rp7
sVcommercial1.3556
p8
g1
((dp9
I0
I2347
sI1
I633
sI2
I504
sI3
I531
sI4
I497
sI5
I484
sI6
I533
sI7
I437
sI8
I406
sI9
I354
sI10
I254
sI11
I268
sI12
I217
sI13
I166
sI14
I157
sI15
I129
sI16
I131
sI17
I77
sI18
I69
sI19
I55
sI20
I50
sI21
I45
sI22
I24
sI23
I21
sI24
I25
sI25
I11
sI26
I9
sI27
I14
sI28
I7
sI29
I5
sI30
I7
sI31
I4
sI32
I2
sI33
I1
sI34
I4
sI35
I1
sI36
I1
sI37
I3
sI38
I1
sI39
I2
sI41
I1
stp10
Rp11
sVcommercial2.3222
p12
g1
((dp13
I0
I2428
sI1
I459
sI2
I504
sI3
I469
sI4
I453
sI5
I509
sI6
I499
sI7
I412
sI8
I426
sI9
I339
sI10
I315
sI11
I264
sI12
I256
sI13
I224
sI14
I173
sI15
I143
sI16
I135
sI17
I110
sI18
I76
sI19
I62
sI20
I62
sI21
I49
sI22
I26
sI23
I15
sI24
I19
sI25
I13
sI26
I7
sI27
I6
sI28
I10
sI29
I8
sI30
I4
sI31
I1
sI32
I2
sI33
I2
sI34
I3
sI35
I1
sI36
I1
sI37
I1
sI47
I1
stp14
Rp15
sVCU-TectoMT.2950
p16
g1
((dp17
I0
I3786
sI1
I484
sI2
I453
sI3
I424
sI4
I408
sI5
I385
sI6
I403
sI7
I332
sI8
I302
sI9
I282
sI10
I207
sI11
I179
sI12
I172
sI13
I111
sI14
I119
sI15
I85
sI16
I78
sI17
I58
sI18
I47
sI19
I43
sI20
I24
sI21
I22
sI22
I20
sI23
I13
sI24
I16
sI25
I12
sI26
I6
sI27
I5
sI28
I3
sI29
I4
sI30
I2
sI32
I2
stp18
Rp19
sVonlineB.0
p20
g1
((dp21
I0
I4390
sI1
I510
sI2
I485
sI3
I464
sI4
I358
sI5
I342
sI6
I305
sI7
I290
sI8
I255
sI9
I215
sI10
I168
sI11
I139
sI12
I102
sI13
I91
sI14
I75
sI15
I77
sI16
I45
sI17
I32
sI18
I32
sI19
I36
sI20
I12
sI21
I15
sI22
I7
sI23
I13
sI24
I7
sI25
I7
sI26
I6
sI28
I5
sI29
I1
sI30
I1
sI31
I1
sI36
I1
stp22
Rp23
sVonlineA.0
p24
g1
((dp25
I0
I3996
sI1
I641
sI2
I504
sI3
I461
sI4
I399
sI5
I369
sI6
I333
sI7
I299
sI8
I272
sI9
I212
sI10
I177
sI11
I153
sI12
I143
sI13
I101
sI14
I78
sI15
I70
sI16
I69
sI17
I44
sI18
I39
sI19
I29
sI20
I21
sI21
I14
sI22
I11
sI23
I14
sI24
I1
sI25
I7
sI26
I8
sI27
I7
sI28
I5
sI29
I3
sI30
I2
sI33
I2
sI34
I1
sI38
I2
stp26
Rp27
sVcu-funky.3515
p28
g1
((dp29
I0
I6258
sI1
I283
sI2
I255
sI3
I222
sI4
I220
sI5
I172
sI6
I200
sI7
I167
sI8
I135
sI9
I116
sI10
I76
sI11
I70
sI12
I67
sI13
I43
sI14
I46
sI15
I44
sI16
I21
sI17
I25
sI18
I12
sI19
I9
sI20
I16
sI21
I8
sI22
I3
sI23
I8
sI24
I3
sI25
I2
sI26
I1
sI27
I4
sI38
I1
stp30
Rp31
sVcu-bojar.3483
p32
g1
((dp33
I0
I7485
sI1
I392
sI2
I205
sI3
I148
sI4
I63
sI5
I52
sI6
I47
sI7
I28
sI8
I12
sI9
I17
sI10
I8
sI11
I4
sI12
I5
sI13
I7
sI14
I4
sI15
I1
sI16
I3
sI18
I1
sI19
I1
sI20
I1
sI22
I3
stp34
Rp35
sVuedin-wmt14.3021
p36
g1
((dp37
I0
I5592
sI1
I475
sI2
I356
sI3
I360
sI4
I258
sI5
I283
sI6
I204
sI7
I200
sI8
I164
sI9
I110
sI10
I105
sI11
I83
sI12
I56
sI13
I52
sI14
I44
sI15
I35
sI16
I29
sI17
I19
sI18
I12
sI19
I14
sI20
I5
sI21
I11
sI22
I4
sI23
I4
sI24
I3
sI25
I2
sI26
I1
sI27
I3
sI29
I1
sI31
I2
stp38
Rp39
sVcu-depfix.3452
p40
g1
((dp41
I0
I7876
sI1
I203
sI2
I134
sI3
I97
sI4
I32
sI5
I29
sI6
I35
sI7
I17
sI8
I11
sI9
I16
sI10
I11
sI11
I4
sI12
I5
sI13
I4
sI14
I5
sI15
I2
sI16
I2
sI18
I1
sI20
I2
sI22
I1
stp42
Rp43
s.